#include <math.h>
#include <stdio.h>
#include <stdlib.h>
#include <string.h>

int main()
{
    int i,a[301],n=0;
    char zf[300][100];
    for (i=0;i<300;i++){
        scanf("%s",&zf[i]);
        a[i]=strlen(zf[i]);
        if(a[i]==0){break;}
        n++;
    }
    for(i=0;i<n-1;i++){
         printf("%d,",a[i]);
    }
    printf("%d",a[i]);
    return 0;
}

