; ModuleID = '28/719.c'
source_filename = "28/719.c"
target datalayout = "e-m:e-p270:32:32-p271:32:32-p272:64:64-i64:64-f80:128-n8:16:32:64-S128"
target triple = "x86_64-pc-linux-gnu"

@.str = private unnamed_addr constant [3 x i8] c"%s\00", align 1
@.str.1 = private unnamed_addr constant [4 x i8] c"%d,\00", align 1
@.str.2 = private unnamed_addr constant [3 x i8] c"%d\00", align 1

; Function Attrs: noinline nounwind uwtable
define dso_local i32 @main() #0 {
  %1 = alloca i32, align 4
  %2 = alloca i32, align 4
  %3 = alloca [301 x i32], align 16
  %4 = alloca i32, align 4
  %5 = alloca [300 x [100 x i8]], align 16
  store i32 0, i32* %1, align 4
  store i32 0, i32* %4, align 4
  store i32 0, i32* %2, align 4
  br label %6

6:                                                ; preds = %32, %0
  %7 = load i32, i32* %2, align 4
  %8 = icmp slt i32 %7, 300
  br i1 %8, label %9, label %35

9:                                                ; preds = %6
  %10 = load i32, i32* %2, align 4
  %11 = sext i32 %10 to i64
  %12 = getelementptr inbounds [300 x [100 x i8]], [300 x [100 x i8]]* %5, i64 0, i64 %11
  %13 = call i32 (i8*, ...) @__isoc99_scanf(i8* getelementptr inbounds ([3 x i8], [3 x i8]* @.str, i64 0, i64 0), [100 x i8]* %12)
  %14 = load i32, i32* %2, align 4
  %15 = sext i32 %14 to i64
  %16 = getelementptr inbounds [300 x [100 x i8]], [300 x [100 x i8]]* %5, i64 0, i64 %15
  %17 = getelementptr inbounds [100 x i8], [100 x i8]* %16, i64 0, i64 0
  %18 = call i64 @strlen(i8* %17) #3
  %19 = trunc i64 %18 to i32
  %20 = load i32, i32* %2, align 4
  %21 = sext i32 %20 to i64
  %22 = getelementptr inbounds [301 x i32], [301 x i32]* %3, i64 0, i64 %21
  store i32 %19, i32* %22, align 4
  %23 = load i32, i32* %2, align 4
  %24 = sext i32 %23 to i64
  %25 = getelementptr inbounds [301 x i32], [301 x i32]* %3, i64 0, i64 %24
  %26 = load i32, i32* %25, align 4
  %27 = icmp eq i32 %26, 0
  br i1 %27, label %28, label %29

28:                                               ; preds = %9
  br label %35

29:                                               ; preds = %9
  %30 = load i32, i32* %4, align 4
  %31 = add nsw i32 %30, 1
  store i32 %31, i32* %4, align 4
  br label %32

32:                                               ; preds = %29
  %33 = load i32, i32* %2, align 4
  %34 = add nsw i32 %33, 1
  store i32 %34, i32* %2, align 4
  br label %6

35:                                               ; preds = %28, %6
  store i32 0, i32* %2, align 4
  br label %36

36:                                               ; preds = %47, %35
  %37 = load i32, i32* %2, align 4
  %38 = load i32, i32* %4, align 4
  %39 = sub nsw i32 %38, 1
  %40 = icmp slt i32 %37, %39
  br i1 %40, label %41, label %50

41:                                               ; preds = %36
  %42 = load i32, i32* %2, align 4
  %43 = sext i32 %42 to i64
  %44 = getelementptr inbounds [301 x i32], [301 x i32]* %3, i64 0, i64 %43
  %45 = load i32, i32* %44, align 4
  %46 = call i32 (i8*, ...) @printf(i8* getelementptr inbounds ([4 x i8], [4 x i8]* @.str.1, i64 0, i64 0), i32 %45)
  br label %47

47:                                               ; preds = %41
  %48 = load i32, i32* %2, align 4
  %49 = add nsw i32 %48, 1
  store i32 %49, i32* %2, align 4
  br label %36

50:                                               ; preds = %36
  %51 = load i32, i32* %2, align 4
  %52 = sext i32 %51 to i64
  %53 = getelementptr inbounds [301 x i32], [301 x i32]* %3, i64 0, i64 %52
  %54 = load i32, i32* %53, align 4
  %55 = call i32 (i8*, ...) @printf(i8* getelementptr inbounds ([3 x i8], [3 x i8]* @.str.2, i64 0, i64 0), i32 %54)
  ret i32 0
}

declare dso_local i32 @__isoc99_scanf(i8*, ...) #1

; Function Attrs: nounwind readonly
declare dso_local i64 @strlen(i8*) #2

declare dso_local i32 @printf(i8*, ...) #1


!llvm.module.flags = !{!0}
!llvm.ident = !{!1}

!0 = !{i32 1, !"wchar_size", i32 4}
!1 = !{!"clang version 10.0.0-4ubuntu1 "}
