; ModuleID = 'source-C-CXX/27/719.c'
source_filename = "source-C-CXX/27/719.c"
target datalayout = "e-m:e-p270:32:32-p271:32:32-p272:64:64-i64:64-f80:128-n8:16:32:64-S128"
target triple = "x86_64-pc-linux-gnu"

@.str = private unnamed_addr constant [3 x i8] c"%s\00", align 1
@.str.1 = private unnamed_addr constant [4 x i8] c"%d,\00", align 1
@.str.2 = private unnamed_addr constant [3 x i8] c"%d\00", align 1

; Function Attrs: nofree nounwind sspstrong uwtable
define dso_local i32 @main() local_unnamed_addr #0 {
  %1 = alloca [301 x i32], align 16
  %2 = alloca [300 x [100 x i8]], align 16
  %3 = bitcast [301 x i32]* %1 to i8*
  call void @llvm.lifetime.start.p0i8(i64 1204, i8* nonnull %3) #4
  %4 = getelementptr inbounds [300 x [100 x i8]], [300 x [100 x i8]]* %2, i64 0, i64 0, i64 0
  call void @llvm.lifetime.start.p0i8(i64 30000, i8* nonnull %4) #4
  br label %5

5:                                                ; preds = %0, %15
  %6 = phi i64 [ 0, %0 ], [ %17, %15 ]
  %7 = phi i32 [ 0, %0 ], [ %16, %15 ]
  %8 = getelementptr inbounds [300 x [100 x i8]], [300 x [100 x i8]]* %2, i64 0, i64 %6
  %9 = call i32 (i8*, ...) @__isoc99_scanf(i8* getelementptr inbounds ([3 x i8], [3 x i8]* @.str, i64 0, i64 0), [100 x i8]* nonnull %8)
  %10 = getelementptr inbounds [100 x i8], [100 x i8]* %8, i64 0, i64 0
  %11 = call i64 @strlen(i8* noundef nonnull %10) #5
  %12 = trunc i64 %11 to i32
  %13 = getelementptr inbounds [301 x i32], [301 x i32]* %1, i64 0, i64 %6
  store i32 %12, i32* %13, align 4, !tbaa !5
  %14 = icmp eq i32 %12, 0
  br i1 %14, label %19, label %15

15:                                               ; preds = %5
  %16 = add nuw nsw i32 %7, 1
  %17 = add nuw nsw i64 %6, 1
  %18 = icmp eq i64 %17, 300
  br i1 %18, label %22, label %5, !llvm.loop !9

19:                                               ; preds = %5
  %20 = add nsw i32 %7, -1
  %21 = icmp ugt i32 %7, 1
  br i1 %21, label %22, label %34

22:                                               ; preds = %15, %19
  %23 = phi i32 [ %20, %19 ], [ 299, %15 ]
  %24 = zext i32 %23 to i64
  br label %25

25:                                               ; preds = %22, %25
  %26 = phi i64 [ 0, %22 ], [ %30, %25 ]
  %27 = getelementptr inbounds [301 x i32], [301 x i32]* %1, i64 0, i64 %26
  %28 = load i32, i32* %27, align 4, !tbaa !5
  %29 = call i32 (i8*, ...) @printf(i8* nonnull dereferenceable(1) getelementptr inbounds ([4 x i8], [4 x i8]* @.str.1, i64 0, i64 0), i32 %28)
  %30 = add nuw nsw i64 %26, 1
  %31 = icmp eq i64 %30, %24
  br i1 %31, label %32, label %25, !llvm.loop !11

32:                                               ; preds = %25
  %33 = zext i32 %23 to i64
  br label %34

34:                                               ; preds = %19, %32
  %35 = phi i64 [ %33, %32 ], [ 0, %19 ]
  %36 = getelementptr inbounds [301 x i32], [301 x i32]* %1, i64 0, i64 %35
  %37 = load i32, i32* %36, align 4, !tbaa !5
  %38 = call i32 (i8*, ...) @printf(i8* nonnull dereferenceable(1) getelementptr inbounds ([3 x i8], [3 x i8]* @.str.2, i64 0, i64 0), i32 %37)
  call void @llvm.lifetime.end.p0i8(i64 30000, i8* nonnull %4) #4
  call void @llvm.lifetime.end.p0i8(i64 1204, i8* nonnull %3) #4
  ret i32 0
}

; Function Attrs: argmemonly mustprogress nofree nosync nounwind willreturn
declare void @llvm.lifetime.start.p0i8(i64 immarg, i8* nocapture) #1

; Function Attrs: nofree nounwind
declare noundef i32 @__isoc99_scanf(i8* nocapture noundef readonly, ...) local_unnamed_addr #2

; Function Attrs: argmemonly mustprogress nofree nounwind readonly willreturn
declare i64 @strlen(i8* nocapture) local_unnamed_addr #3

; Function Attrs: nofree nounwind
declare noundef i32 @printf(i8* nocapture noundef readonly, ...) local_unnamed_addr #2

; Function Attrs: argmemonly mustprogress nofree nosync nounwind willreturn
declare void @llvm.lifetime.end.p0i8(i64 immarg, i8* nocapture) #1


!llvm.module.flags = !{!0, !1, !2, !3}
!llvm.ident = !{!4}

!0 = !{i32 1, !"wchar_size", i32 4}
!1 = !{i32 7, !"PIC Level", i32 2}
!2 = !{i32 7, !"PIE Level", i32 2}
!3 = !{i32 7, !"uwtable", i32 1}
!4 = !{!"clang version 13.0.0"}
!5 = !{!6, !6, i64 0}
!6 = !{!"int", !7, i64 0}
!7 = !{!"omnipotent char", !8, i64 0}
!8 = !{!"Simple C/C++ TBAA"}
!9 = distinct !{!9, !10}
!10 = !{!"llvm.loop.mustprogress"}
!11 = distinct !{!11, !10}
